target datalayout = "e-m:e-p270:32:32-p271:32:32-p272:64:64-i64:64-i128:128-f80:128-n8:16:32:64-S128"
target triple = "x86_64-pc-linux-gnu"

%struct.KINMemRec = type { ptr, double, ptr, ptr, double, double, i32, i64, i64, i64, i64, i32, i32, i32, i32, i32, i32, i32, i32, double, double, double, double, double, double, double, double, double, i32, double, i64, i64, i64, i64, i64, i64, i64, ptr, ptr, ptr, ptr, ptr, ptr, ptr, ptr, ptr, ptr, ptr, i32, i32, double, ptr, ptr, ptr, ptr, ptr, double, ptr, ptr, ptr, ptr, i64, i64, i32, ptr, ptr, i32, ptr, ptr, i64, i64, i64, i64, ptr, ptr, ptr, ptr, i32, ptr, double, double, double, double, double, i32, double, double, double, i32 }

@.str = private unnamed_addr constant [118 x i8] c"generated/home/dtcxzyw/WorkSpace/Projects/compilers/llvm-opt-benchmark/bench/sundials/sundials/src/kinsol/kinsol_io.c\00", align 1
@.str.1 = private unnamed_addr constant [27 x i8] c"kinsol_mem = NULL illegal.\00", align 1
@__func__.KINSetEtaParams = private unnamed_addr constant [16 x i8] c"KINSetEtaParams\00", align 1
@.str.11 = private unnamed_addr constant [20 x i8] c"alpha out of range.\00", align 1
@.str.12 = private unnamed_addr constant [20 x i8] c"gamma out of range.\00", align 1

; Function Attrs: nounwind uwtable
define i32 @KINSetEtaParams(ptr noundef %0, double noundef %1, double noundef %2) #0 {
  %4 = alloca i32, align 4
  %5 = alloca ptr, align 8
  %6 = alloca double, align 8
  %7 = alloca double, align 8
  %8 = alloca ptr, align 8
  %9 = alloca i32, align 4
  store ptr %0, ptr %5, align 8, !tbaa !3
  store double %1, ptr %6, align 8, !tbaa !20
  store double %2, ptr %7, align 8, !tbaa !20
  call void @llvm.lifetime.start.p0(i64 8, ptr %8) #5
  %10 = load ptr, ptr %5, align 8, !tbaa !3
  %11 = icmp eq ptr %10, null
  br i1 %11, label %12, label %13

12:                                               ; preds = %3
  call void (ptr, i32, i32, ptr, ptr, ptr, ...) @KINProcessError(ptr noundef null, i32 noundef -1, i32 noundef 477, ptr noundef @__func__.KINSetEtaParams, ptr noundef @.str, ptr noundef @.str.1)
  store i32 -1, ptr %4, align 4
  store i32 1, ptr %9, align 4
  br label %59

13:                                               ; preds = %3
  %14 = load ptr, ptr %5, align 8, !tbaa !3
  store ptr %14, ptr %8, align 8, !tbaa !7
  %15 = load double, ptr %7, align 8, !tbaa !20
  %16 = fcmp ole double %15, 1.000000e+00
  br i1 %16, label %20, label %17

17:                                               ; preds = %13
  %18 = load double, ptr %7, align 8, !tbaa !20
  %19 = fcmp ogt double %18, 2.000000e+00
  br i1 %19, label %20, label %26

20:                                               ; preds = %17, %13
  %21 = load double, ptr %7, align 8, !tbaa !20
  %22 = fcmp une double %21, 0.000000e+00
  br i1 %22, label %23, label %25

23:                                               ; preds = %20
  %24 = load ptr, ptr %8, align 8, !tbaa !7
  call void (ptr, i32, i32, ptr, ptr, ptr, ...) @KINProcessError(ptr noundef %24, i32 noundef -2, i32 noundef 487, ptr noundef @__func__.KINSetEtaParams, ptr noundef @.str, ptr noundef @.str.11)
  store i32 -2, ptr %4, align 4
  store i32 1, ptr %9, align 4
  br label %59

25:                                               ; preds = %20
  br label %26

26:                                               ; preds = %25, %17
  %27 = load double, ptr %7, align 8, !tbaa !20
  %28 = fcmp oeq double %27, 0.000000e+00
  br i1 %28, label %29, label %32

29:                                               ; preds = %26
  %30 = load ptr, ptr %8, align 8, !tbaa !7
  %31 = getelementptr inbounds nuw %struct.KINMemRec, ptr %30, i32 0, i32 27
  store double 2.000000e+00, ptr %31, align 8, !tbaa !38
  br label %36

32:                                               ; preds = %26
  %33 = load double, ptr %7, align 8, !tbaa !20
  %34 = load ptr, ptr %8, align 8, !tbaa !7
  %35 = getelementptr inbounds nuw %struct.KINMemRec, ptr %34, i32 0, i32 27
  store double %33, ptr %35, align 8, !tbaa !38
  br label %36

36:                                               ; preds = %32, %29
  %37 = load double, ptr %6, align 8, !tbaa !20
  %38 = fcmp ole double %37, 0.000000e+00
  br i1 %38, label %42, label %39

39:                                               ; preds = %36
  %40 = load double, ptr %6, align 8, !tbaa !20
  %41 = fcmp ogt double %40, 1.000000e+00
  br i1 %41, label %42, label %48

42:                                               ; preds = %39, %36
  %43 = load double, ptr %6, align 8, !tbaa !20
  %44 = fcmp une double %43, 0.000000e+00
  br i1 %44, label %45, label %47

45:                                               ; preds = %42
  %46 = load ptr, ptr %8, align 8, !tbaa !7
  call void (ptr, i32, i32, ptr, ptr, ptr, ...) @KINProcessError(ptr noundef %46, i32 noundef -2, i32 noundef 500, ptr noundef @__func__.KINSetEtaParams, ptr noundef @.str, ptr noundef @.str.12)
  store i32 -2, ptr %4, align 4
  store i32 1, ptr %9, align 4
  br label %59

47:                                               ; preds = %42
  br label %48

48:                                               ; preds = %47, %39
  %49 = load double, ptr %6, align 8, !tbaa !20
  %50 = fcmp oeq double %49, 0.000000e+00
  br i1 %50, label %51, label %54

51:                                               ; preds = %48
  %52 = load ptr, ptr %8, align 8, !tbaa !7
  %53 = getelementptr inbounds nuw %struct.KINMemRec, ptr %52, i32 0, i32 26
  store double 9.000000e-01, ptr %53, align 8, !tbaa !39
  br label %58

54:                                               ; preds = %48
  %55 = load double, ptr %6, align 8, !tbaa !20
  %56 = load ptr, ptr %8, align 8, !tbaa !7
  %57 = getelementptr inbounds nuw %struct.KINMemRec, ptr %56, i32 0, i32 26
  store double %55, ptr %57, align 8, !tbaa !39
  br label %58

58:                                               ; preds = %54, %51
  store i32 0, ptr %4, align 4
  store i32 1, ptr %9, align 4
  br label %59

59:                                               ; preds = %58, %45, %23, %12
  call void @llvm.lifetime.end.p0(i64 8, ptr %8) #5
  %60 = load i32, ptr %4, align 4
  ret i32 %60
}