; Function Attrs: nounwind uwtable
define range(i32 -2, 1) i32 @KINSetEtaParams(ptr noundef %0, double noundef %1, double noundef %2) local_unnamed_addr #0 {
  %4 = icmp eq ptr %0, null
  br i1 %4, label %5, label %6

5:                                                ; preds = %3
  tail call void (ptr, i32, i32, ptr, ptr, ptr, ...) @KINProcessError(ptr noundef null, i32 noundef -1, i32 noundef 477, ptr noundef nonnull @__func__.KINSetEtaParams, ptr noundef nonnull @.str, ptr noundef nonnull @.str.1) #9
  br label %23

6:                                                ; preds = %3
  %7 = fcmp ole double %2, 1.000000e+00
  %8 = fcmp ogt double %2, 2.000000e+00
  %or.cond = or i1 %7, %8
  %9 = fcmp une double %2, 0.000000e+00
  %or.cond5 = and i1 %9, %or.cond
  br i1 %or.cond5, label %10, label %11

10:                                               ; preds = %6
  tail call void (ptr, i32, i32, ptr, ptr, ptr, ...) @KINProcessError(ptr noundef nonnull %0, i32 noundef -2, i32 noundef 487, ptr noundef nonnull @__func__.KINSetEtaParams, ptr noundef nonnull @.str, ptr noundef nonnull @.str.11) #9
  br label %23

11:                                               ; preds = %6
  %12 = fcmp oeq double %2, 0.000000e+00
  %.sink = select i1 %12, double 2.000000e+00, double %2
  %13 = getelementptr inbounds nuw i8, ptr %0, i64 184
  store double %.sink, ptr %13, align 8, !tbaa !32
  %14 = fcmp ole double %1, 0.000000e+00
  %15 = fcmp ogt double %1, 1.000000e+00
  %or.cond3 = or i1 %14, %15
  %16 = fcmp une double %1, 0.000000e+00
  %or.cond7 = and i1 %16, %or.cond3
  br i1 %or.cond7, label %17, label %18

17:                                               ; preds = %11
  tail call void (ptr, i32, i32, ptr, ptr, ptr, ...) @KINProcessError(ptr noundef nonnull %0, i32 noundef -2, i32 noundef 500, ptr noundef nonnull @__func__.KINSetEtaParams, ptr noundef nonnull @.str, ptr noundef nonnull @.str.12) #9
  br label %23

18:                                               ; preds = %11
  %19 = fcmp oeq double %1, 0.000000e+00
  %20 = getelementptr inbounds nuw i8, ptr %0, i64 176
  br i1 %19, label %21, label %22

21:                                               ; preds = %18
  store double 9.000000e-01, ptr %20, align 8, !tbaa !33
  br label %23

22:                                               ; preds = %18
  store double %1, ptr %20, align 8, !tbaa !33
  br label %23

23:                                               ; preds = %21, %22, %17, %10, %5
  %.0 = phi i32 [ -1, %5 ], [ -2, %10 ], [ -2, %17 ], [ 0, %22 ], [ 0, %21 ]
  ret i32 %.0
}